target datalayout = "e-m:e-p270:32:32-p271:32:32-p272:64:64-i64:64-i128:128-f80:128-n8:16:32:64-S128"
target triple = "x86_64-pc-linux-gnu"

%struct._uri_offset_info = type { i32, i32, i32, i32, i32, i32, i32, i32, i32, i32, i32, i32, i32, i32, i32 }

; Function Attrs: null_pointer_is_valid sspstrong uwtable
define internal i32 @dissect_sip_name_addr_or_addr_spec(ptr noundef %0, ptr noundef %1, i32 noundef %2, i32 noundef %3, ptr noundef %4) #0 {
  %6 = alloca i32, align 4
  %7 = alloca ptr, align 8
  %8 = alloca ptr, align 8
  %9 = alloca i32, align 4
  %10 = alloca i32, align 4
  %11 = alloca ptr, align 8
  %12 = alloca i8, align 1
  %13 = alloca i32, align 4
  %14 = alloca i32, align 4
  %15 = alloca i32, align 4
  %16 = alloca i32, align 4
  %17 = alloca i8, align 1
  %18 = alloca i32, align 4
  store ptr %0, ptr %7, align 8
  store ptr %1, ptr %8, align 8
  store i32 %2, ptr %9, align 4
  store i32 %3, ptr %10, align 4
  store ptr %4, ptr %11, align 8
  call void @llvm.lifetime.start.p0(i64 1, ptr %12) #18
  call void @llvm.lifetime.start.p0(i64 4, ptr %13) #18
  call void @llvm.lifetime.start.p0(i64 4, ptr %14) #18
  call void @llvm.lifetime.start.p0(i64 4, ptr %15) #18
  call void @llvm.lifetime.start.p0(i64 4, ptr %16) #18
  call void @llvm.lifetime.start.p0(i64 1, ptr %17) #18
  store i8 0, ptr %17, align 1
  %19 = load ptr, ptr %7, align 8
  %20 = load i32, ptr %9, align 4
  %21 = load i32, ptr %10, align 4
  %22 = load i32, ptr %9, align 4
  %23 = sub i32 %21, %22
  %24 = call i32 @tvb_skip_wsp(ptr noundef %19, i32 noundef %20, i32 noundef %23)
  store i32 %24, ptr %14, align 4
  %25 = load i32, ptr %14, align 4
  %26 = load i32, ptr %10, align 4
  %27 = icmp sge i32 %25, %26
  br i1 %27, label %28, label %29

28:                                               ; preds = %5
  store i32 -1, ptr %6, align 4
  store i32 1, ptr %18, align 4
  br label %190

29:                                               ; preds = %5
  %30 = load i32, ptr %14, align 4
  %31 = load ptr, ptr %11, align 8
  %32 = getelementptr inbounds nuw %struct._uri_offset_info, ptr %31, i32 0, i32 7
  store i32 %30, ptr %32, align 4
  %33 = load ptr, ptr %7, align 8
  %34 = load i32, ptr %14, align 4
  %35 = call zeroext i8 @tvb_get_uint8(ptr noundef %33, i32 noundef %34)
  store i8 %35, ptr %12, align 1
  %36 = load i8, ptr %12, align 1
  %37 = sext i8 %36 to i32
  switch i32 %37, label %104 [
    i32 34, label %38
    i32 60, label %101
  ]

38:                                               ; preds = %29
  %39 = load i32, ptr %14, align 4
  %40 = load ptr, ptr %11, align 8
  %41 = getelementptr inbounds nuw %struct._uri_offset_info, ptr %40, i32 0, i32 1
  store i32 %39, ptr %41, align 4
  br label %42

42:                                               ; preds = %76, %38
  %43 = load ptr, ptr %7, align 8
  %44 = load i32, ptr %14, align 4
  %45 = add i32 %44, 1
  %46 = load i32, ptr %10, align 4
  %47 = load i32, ptr %14, align 4
  %48 = add i32 %47, 1
  %49 = sub i32 %46, %48
  %50 = call i32 @tvb_find_uint8(ptr noundef %43, i32 noundef %45, i32 noundef %49, i8 noundef zeroext 34)
  store i32 %50, ptr %15, align 4
  %51 = load i32, ptr %15, align 4
  %52 = icmp eq i32 %51, -1
  br i1 %52, label %53, label %54

53:                                               ; preds = %42
  store i32 -1, ptr %6, align 4
  store i32 1, ptr %18, align 4
  br label %190

54:                                               ; preds = %42
  %55 = load i32, ptr %15, align 4
  store i32 %55, ptr %14, align 4
  store i32 1, ptr %13, align 4
  br label %56

56:                                               ; preds = %65, %54
  %57 = load ptr, ptr %7, align 8
  %58 = load i32, ptr %15, align 4
  %59 = load i32, ptr %13, align 4
  %60 = sub i32 %58, %59
  %61 = call zeroext i8 @tvb_get_uint8(ptr noundef %57, i32 noundef %60)
  %62 = zext i8 %61 to i32
  %63 = icmp eq i32 %62, 92
  br i1 %63, label %64, label %68

64:                                               ; preds = %56
  br label %65

65:                                               ; preds = %64
  %66 = load i32, ptr %13, align 4
  %67 = add i32 %66, 1
  store i32 %67, ptr %13, align 4
  br label %56, !llvm.loop !40

68:                                               ; preds = %56
  %69 = load i32, ptr %13, align 4
  %70 = add i32 %69, -1
  store i32 %70, ptr %13, align 4
  %71 = load i32, ptr %13, align 4
  %72 = srem i32 %71, 2
  %73 = icmp eq i32 %72, 0
  br i1 %73, label %74, label %75

74:                                               ; preds = %68
  br label %80

75:                                               ; preds = %68
  br label %76

76:                                               ; preds = %75
  %77 = load i32, ptr %14, align 4
  %78 = load i32, ptr %10, align 4
  %79 = icmp slt i32 %77, %78
  br i1 %79, label %42, label %80, !llvm.loop !41

80:                                               ; preds = %76, %74
  %81 = load i32, ptr %14, align 4
  %82 = load i32, ptr %10, align 4
  %83 = icmp sge i32 %81, %82
  br i1 %83, label %84, label %85

84:                                               ; preds = %80
  store i32 -1, ptr %6, align 4
  store i32 1, ptr %18, align 4
  br label %190

85:                                               ; preds = %80
  %86 = load i32, ptr %14, align 4
  %87 = load ptr, ptr %11, align 8
  %88 = getelementptr inbounds nuw %struct._uri_offset_info, ptr %87, i32 0, i32 2
  store i32 %86, ptr %88, align 4
  %89 = load ptr, ptr %7, align 8
  %90 = load i32, ptr %14, align 4
  %91 = load i32, ptr %10, align 4
  %92 = load i32, ptr %14, align 4
  %93 = sub i32 %91, %92
  %94 = call i32 @tvb_find_uint8(ptr noundef %89, i32 noundef %90, i32 noundef %93, i8 noundef zeroext 60)
  store i32 %94, ptr %15, align 4
  %95 = load i32, ptr %15, align 4
  %96 = icmp eq i32 %95, -1
  br i1 %96, label %97, label %98

97:                                               ; preds = %85
  store i32 -1, ptr %6, align 4
  store i32 1, ptr %18, align 4
  br label %190

98:                                               ; preds = %85
  %99 = load i32, ptr %15, align 4
  %100 = add i32 %99, 1
  store i32 %100, ptr %14, align 4
  br label %157

101:                                              ; preds = %29
  %102 = load i32, ptr %14, align 4
  %103 = add i32 %102, 1
  store i32 %103, ptr %14, align 4
  br label %157

104:                                              ; preds = %29
  %105 = load ptr, ptr %7, align 8
  %106 = load i32, ptr %14, align 4
  %107 = load i32, ptr %10, align 4
  %108 = load i32, ptr %14, align 4
  %109 = sub i32 %107, %108
  %110 = call i32 @tvb_find_uint8(ptr noundef %105, i32 noundef %106, i32 noundef %109, i8 noundef zeroext 60)
  store i32 %110, ptr %15, align 4
  %111 = load ptr, ptr %7, align 8
  %112 = load i32, ptr %14, align 4
  %113 = load i32, ptr %10, align 4
  %114 = load i32, ptr %14, align 4
  %115 = sub i32 %113, %114
  %116 = call i32 @tvb_find_uint8(ptr noundef %111, i32 noundef %112, i32 noundef %115, i8 noundef zeroext 58)
  store i32 %116, ptr %16, align 4
  %117 = load i32, ptr %15, align 4
  %118 = icmp ne i32 %117, -1
  br i1 %118, label %119, label %138

119:                                              ; preds = %104
  %120 = load i32, ptr %16, align 4
  %121 = icmp ne i32 %120, -1
  br i1 %121, label %122, label %138

122:                                              ; preds = %119
  %123 = load i32, ptr %15, align 4
  %124 = load i32, ptr %16, align 4
  %125 = icmp slt i32 %123, %124
  br i1 %125, label %126, label %136

126:                                              ; preds = %122
  %127 = load i32, ptr %14, align 4
  %128 = load ptr, ptr %11, align 8
  %129 = getelementptr inbounds nuw %struct._uri_offset_info, ptr %128, i32 0, i32 1
  store i32 %127, ptr %129, align 4
  %130 = load i32, ptr %15, align 4
  %131 = sub i32 %130, 1
  %132 = load ptr, ptr %11, align 8
  %133 = getelementptr inbounds nuw %struct._uri_offset_info, ptr %132, i32 0, i32 2
  store i32 %131, ptr %133, align 4
  %134 = load i32, ptr %15, align 4
  %135 = add i32 %134, 1
  store i32 %135, ptr %14, align 4
  br label %137

136:                                              ; preds = %122
  store i8 1, ptr %17, align 1
  br label %137

137:                                              ; preds = %136, %126
  br label %156

138:                                              ; preds = %119, %104
  %139 = load i32, ptr %15, align 4
  %140 = icmp ne i32 %139, -1
  br i1 %140, label %141, label %151

141:                                              ; preds = %138
  %142 = load i32, ptr %14, align 4
  %143 = load ptr, ptr %11, align 8
  %144 = getelementptr inbounds nuw %struct._uri_offset_info, ptr %143, i32 0, i32 1
  store i32 %142, ptr %144, align 4
  %145 = load i32, ptr %15, align 4
  %146 = sub i32 %145, 1
  %147 = load ptr, ptr %11, align 8
  %148 = getelementptr inbounds nuw %struct._uri_offset_info, ptr %147, i32 0, i32 2
  store i32 %146, ptr %148, align 4
  %149 = load i32, ptr %15, align 4
  %150 = add i32 %149, 1
  store i32 %150, ptr %14, align 4
  br label %157

151:                                              ; preds = %138
  %152 = load i32, ptr %16, align 4
  %153 = icmp ne i32 %152, -1
  br i1 %153, label %154, label %155

154:                                              ; preds = %151
  store i8 1, ptr %17, align 1
  br label %157

155:                                              ; preds = %151
  store i32 -1, ptr %6, align 4
  store i32 1, ptr %18, align 4
  br label %190

156:                                              ; preds = %137
  br label %157

157:                                              ; preds = %156, %154, %141, %101, %98
  %158 = load i32, ptr %14, align 4
  %159 = load ptr, ptr %11, align 8
  %160 = getelementptr inbounds nuw %struct._uri_offset_info, ptr %159, i32 0, i32 3
  store i32 %158, ptr %160, align 4
  %161 = load i8, ptr %17, align 1, !range !12, !noundef !13
  %162 = trunc i8 %161 to i1
  %163 = zext i1 %162 to i32
  %164 = icmp eq i32 %163, 0
  br i1 %164, label %165, label %183

165:                                              ; preds = %157
  %166 = load ptr, ptr %7, align 8
  %167 = load i32, ptr %14, align 4
  %168 = load i32, ptr %10, align 4
  %169 = load i32, ptr %14, align 4
  %170 = sub i32 %168, %169
  %171 = call i32 @tvb_find_uint8(ptr noundef %166, i32 noundef %167, i32 noundef %170, i8 noundef zeroext 62)
  store i32 %171, ptr %15, align 4
  %172 = load i32, ptr %15, align 4
  %173 = icmp eq i32 %172, -1
  br i1 %173, label %174, label %175

174:                                              ; preds = %165
  store i32 -1, ptr %6, align 4
  store i32 1, ptr %18, align 4
  br label %190

175:                                              ; preds = %165
  %176 = load i32, ptr %15, align 4
  %177 = load ptr, ptr %11, align 8
  %178 = getelementptr inbounds nuw %struct._uri_offset_info, ptr %177, i32 0, i32 8
  store i32 %176, ptr %178, align 4
  %179 = load i32, ptr %15, align 4
  %180 = sub i32 %179, 1
  %181 = load ptr, ptr %11, align 8
  %182 = getelementptr inbounds nuw %struct._uri_offset_info, ptr %181, i32 0, i32 4
  store i32 %180, ptr %182, align 4
  br label %183

183:                                              ; preds = %175, %157
  %184 = load ptr, ptr %7, align 8
  %185 = load ptr, ptr %8, align 8
  %186 = load i32, ptr %14, align 4
  %187 = load i32, ptr %10, align 4
  %188 = load ptr, ptr %11, align 8
  %189 = call i32 @dissect_sip_uri(ptr noundef %184, ptr noundef %185, i32 noundef %186, i32 noundef %187, ptr noundef %188)
  store i32 %189, ptr %6, align 4
  store i32 1, ptr %18, align 4
  br label %190

190:                                              ; preds = %183, %174, %155, %97, %84, %53, %28
  call void @llvm.lifetime.end.p0(i64 1, ptr %17) #18
  call void @llvm.lifetime.end.p0(i64 4, ptr %16) #18
  call void @llvm.lifetime.end.p0(i64 4, ptr %15) #18
  call void @llvm.lifetime.end.p0(i64 4, ptr %14) #18
  call void @llvm.lifetime.end.p0(i64 4, ptr %13) #18
  call void @llvm.lifetime.end.p0(i64 1, ptr %12) #18
  %191 = load i32, ptr %6, align 4
  ret i32 %191
}