; Function Attrs: null_pointer_is_valid sspstrong uwtable
define internal fastcc i32 @dissect_sip_name_addr_or_addr_spec(ptr noundef %0, i32 noundef %1, i32 noundef %2, ptr noundef captures(none) %3) unnamed_addr #0 {
  %5 = sub i32 %2, %1
  %6 = tail call i32 @tvb_skip_wsp(ptr noundef %0, i32 noundef %1, i32 noundef %5)
  %.not = icmp slt i32 %6, %2
  br i1 %.not, label %7, label %.loopexit

7:                                                ; preds = %4
  %8 = getelementptr inbounds nuw i8, ptr %3, i64 28
  store i32 %6, ptr %8, align 4
  %9 = tail call zeroext i8 @tvb_get_uint8(ptr noundef %0, i32 noundef %6)
  switch i8 %9, label %30 [
    i8 34, label %10
    i8 60, label %43
  ]

10:                                               ; preds = %7
  %11 = getelementptr inbounds nuw i8, ptr %3, i64 4
  store i32 %6, ptr %11, align 4
  br label %12

12:                                               ; preds = %21, %10
  %.081 = phi i32 [ %6, %10 ], [ %15, %21 ]
  %13 = add nsw i32 %.081, 1
  %14 = sub i32 %2, %13
  %15 = tail call i32 @tvb_find_uint8(ptr noundef %0, i32 noundef %13, i32 noundef %14, i8 noundef zeroext 34)
  %16 = icmp eq i32 %15, -1
  br i1 %16, label %.loopexit, label %.preheader

.preheader:                                       ; preds = %12, %.preheader
  %.082 = phi i32 [ %20, %.preheader ], [ 1, %12 ]
  %17 = sub i32 %15, %.082
  %18 = tail call zeroext i8 @tvb_get_uint8(ptr noundef %0, i32 noundef %17)
  %19 = icmp eq i8 %18, 92
  %20 = add i32 %.082, 1
  br i1 %19, label %.preheader, label %21, !llvm.loop !44

21:                                               ; preds = %.preheader
  %22 = and i32 %.082, 1
  %.not90 = icmp eq i32 %22, 0
  %23 = icmp slt i32 %15, %2
  %or.cond92 = and i1 %23, %.not90
  br i1 %or.cond92, label %12, label %24, !llvm.loop !45

24:                                               ; preds = %21
  br i1 %23, label %25, label %.loopexit

25:                                               ; preds = %24
  %26 = getelementptr inbounds nuw i8, ptr %3, i64 8
  store i32 %15, ptr %26, align 4
  %27 = sub i32 %2, %15
  %28 = tail call i32 @tvb_find_uint8(ptr noundef %0, i32 noundef %15, i32 noundef %27, i8 noundef zeroext 60)
  %29 = icmp eq i32 %28, -1
  br i1 %29, label %.loopexit, label %43

30:                                               ; preds = %7
  %31 = sub i32 %2, %6
  %32 = tail call i32 @tvb_find_uint8(ptr noundef %0, i32 noundef %6, i32 noundef %31, i8 noundef zeroext 60)
  %33 = tail call i32 @tvb_find_uint8(ptr noundef %0, i32 noundef %6, i32 noundef %31, i8 noundef zeroext 58)
  %34 = icmp ne i32 %32, -1
  %35 = icmp ne i32 %33, -1
  %or.cond = select i1 %34, i1 %35, i1 false
  br i1 %or.cond, label %36, label %38

36:                                               ; preds = %30
  %37 = icmp slt i32 %32, %33
  br i1 %37, label %.sink.split, label %51

38:                                               ; preds = %30
  br i1 %34, label %.sink.split, label %39

39:                                               ; preds = %38
  br i1 %35, label %51, label %.loopexit

.sink.split:                                      ; preds = %38, %36
  %40 = getelementptr inbounds nuw i8, ptr %3, i64 4
  store i32 %6, ptr %40, align 4
  %41 = add i32 %32, -1
  %42 = getelementptr inbounds nuw i8, ptr %3, i64 8
  store i32 %41, ptr %42, align 4
  br label %43

43:                                               ; preds = %.sink.split, %7, %25
  %.1.ph.in = phi i32 [ %28, %25 ], [ %6, %7 ], [ %32, %.sink.split ]
  %.1.ph = add i32 %.1.ph.in, 1
  %44 = getelementptr inbounds nuw i8, ptr %3, i64 12
  store i32 %.1.ph, ptr %44, align 4
  %45 = sub i32 %2, %.1.ph
  %46 = tail call i32 @tvb_find_uint8(ptr noundef %0, i32 noundef %.1.ph, i32 noundef %45, i8 noundef zeroext 62)
  %47 = icmp eq i32 %46, -1
  br i1 %47, label %.loopexit, label %48

48:                                               ; preds = %43
  %49 = getelementptr inbounds nuw i8, ptr %3, i64 32
  store i32 %46, ptr %49, align 4
  %50 = add i32 %46, -1
  br label %51

51:                                               ; preds = %36, %39, %48
  %.sink12 = phi i64 [ 16, %48 ], [ 12, %39 ], [ 12, %36 ]
  %.sink = phi i32 [ %50, %48 ], [ %6, %39 ], [ %6, %36 ]
  %.13 = phi i32 [ %.1.ph, %48 ], [ %6, %39 ], [ %6, %36 ]
  %52 = getelementptr inbounds nuw i8, ptr %3, i64 %.sink12
  store i32 %.sink, ptr %52, align 4
  %53 = tail call fastcc i32 @dissect_sip_uri(ptr noundef %0, i32 noundef %.13, i32 noundef %2, ptr noundef %3)
  br label %.loopexit

.loopexit:                                        ; preds = %12, %43, %39, %25, %24, %4, %51
  %.080 = phi i32 [ %53, %51 ], [ -1, %4 ], [ -1, %24 ], [ -1, %25 ], [ -1, %39 ], [ -1, %43 ], [ -1, %12 ]
  ret i32 %.080
}